target datalayout = "e-m:e-p270:32:32-p271:32:32-p272:64:64-i64:64-i128:128-f80:128-n8:16:32:64-S128"
target triple = "x86_64-pc-linux-gnu"

%struct.Sbd_Str_t_ = type { i32, i32, [10 x i32], i64 }

; Function Attrs: nounwind uwtable
define i32 @Sbd_ProblemCountParams(i32 noundef %0, ptr noundef %1) #0 {
  %3 = alloca i32, align 4
  %4 = alloca ptr, align 8
  %5 = alloca ptr, align 8
  %6 = alloca i32, align 4
  store i32 %0, ptr %3, align 4
  store ptr %1, ptr %4, align 8
  store i32 0, ptr %6, align 4
  %7 = load ptr, ptr %4, align 8
  store ptr %7, ptr %5, align 8
  br label %8

8:                                                ; preds = %33, %2
  %9 = load ptr, ptr %5, align 8
  %10 = load ptr, ptr %4, align 8
  %11 = load i32, ptr %3, align 4
  %12 = sext i32 %11 to i64
  %13 = getelementptr inbounds %struct.Sbd_Str_t_, ptr %10, i64 %12
  %14 = icmp ult ptr %9, %13
  br i1 %14, label %15, label %36

15:                                               ; preds = %8
  %16 = load ptr, ptr %5, align 8
  %17 = getelementptr inbounds %struct.Sbd_Str_t_, ptr %16, i32 0, i32 0
  %18 = load i32, ptr %17, align 8
  %19 = icmp ne i32 %18, 0
  br i1 %19, label %20, label %25

20:                                               ; preds = %15
  %21 = load ptr, ptr %5, align 8
  %22 = getelementptr inbounds %struct.Sbd_Str_t_, ptr %21, i32 0, i32 1
  %23 = load i32, ptr %22, align 4
  %24 = shl i32 1, %23
  br label %29

25:                                               ; preds = %15
  %26 = load ptr, ptr %5, align 8
  %27 = getelementptr inbounds %struct.Sbd_Str_t_, ptr %26, i32 0, i32 1
  %28 = load i32, ptr %27, align 4
  br label %29

29:                                               ; preds = %25, %20
  %30 = phi i32 [ %24, %20 ], [ %28, %25 ]
  %31 = load i32, ptr %6, align 4
  %32 = add nsw i32 %31, %30
  store i32 %32, ptr %6, align 4
  br label %33

33:                                               ; preds = %29
  %34 = load ptr, ptr %5, align 8
  %35 = getelementptr inbounds %struct.Sbd_Str_t_, ptr %34, i32 1
  store ptr %35, ptr %5, align 8
  br label %8, !llvm.loop !4

36:                                               ; preds = %8
  %37 = load i32, ptr %6, align 4
  ret i32 %37
}