; Function Attrs: nofree norecurse nosync nounwind memory(argmem: read) uwtable
define i32 @Sbd_ProblemCountParams(i32 noundef %0, ptr noundef readonly %1) local_unnamed_addr #0 {
  %3 = sext i32 %0 to i64
  %4 = getelementptr inbounds %struct.Sbd_Str_t_, ptr %1, i64 %3
  %5 = icmp sgt i32 %0, 0
  br i1 %5, label %.lr.ph, label %._crit_edge

.lr.ph:                                           ; preds = %2, %.lr.ph
  %.011 = phi i32 [ %11, %.lr.ph ], [ 0, %2 ]
  %.0910 = phi ptr [ %12, %.lr.ph ], [ %1, %2 ]
  %6 = load i32, ptr %.0910, align 8
  %.not = icmp eq i32 %6, 0
  %7 = getelementptr inbounds nuw i8, ptr %.0910, i64 4
  %8 = load i32, ptr %7, align 4
  %9 = shl nuw i32 1, %8
  %10 = select i1 %.not, i32 %8, i32 %9
  %11 = add nsw i32 %10, %.011
  %12 = getelementptr inbounds nuw i8, ptr %.0910, i64 56
  %13 = icmp ult ptr %12, %4
  br i1 %13, label %.lr.ph, label %._crit_edge, !llvm.loop !4

._crit_edge:                                      ; preds = %.lr.ph, %2
  %.0.lcssa = phi i32 [ 0, %2 ], [ %11, %.lr.ph ]
  ret i32 %.0.lcssa
}